; Function Attrs: alwaysinline norecurse nounwind ssp uwtable
define internal void @"_ZN6open3d4core15ParallelForCPU_IZZZNS0_7TriuCPUERKNS0_6TensorERS2_iENK3$_0clEvENKUlvE2_clEvEUllE_EEvRKNS0_6DeviceElRKT_.omp_outlined"(ptr noalias noundef readonly captures(none) %0, ptr noalias readnone captures(none) %1, ptr noundef nonnull readonly align 8 captures(none) dereferenceable(8) %2, ptr noundef nonnull readonly align 8 captures(none) dereferenceable(32) %3) #9 personality ptr @__gxx_personality_v0 {
  %5 = alloca i64, align 8
  %6 = alloca i64, align 8
  %7 = alloca i64, align 8
  %8 = alloca i32, align 4
  %9 = load i64, ptr %2, align 8, !tbaa !11
  %10 = icmp sgt i64 %9, 0
  br i1 %10, label %11, label %41

11:                                               ; preds = %4
  %12 = add nsw i64 %9, -1
  call void @llvm.lifetime.start.p0(i64 8, ptr nonnull %5) #10
  store i64 0, ptr %5, align 8, !tbaa !11
  call void @llvm.lifetime.start.p0(i64 8, ptr nonnull %6) #10
  store i64 %12, ptr %6, align 8, !tbaa !11
  call void @llvm.lifetime.start.p0(i64 8, ptr nonnull %7) #10
  store i64 1, ptr %7, align 8, !tbaa !11
  call void @llvm.lifetime.start.p0(i64 4, ptr nonnull %8) #10
  store i32 0, ptr %8, align 4, !tbaa !4
  %13 = load i32, ptr %0, align 4, !tbaa !4
  call void @__kmpc_for_static_init_8(ptr nonnull @1, i32 %13, i32 34, ptr nonnull %8, ptr nonnull %5, ptr nonnull %6, ptr nonnull %7, i64 1, i64 1)
  %14 = load i64, ptr %6, align 8, !tbaa !11
  %15 = call i64 @llvm.smin.i64(i64 %14, i64 %12)
  store i64 %15, ptr %6, align 8, !tbaa !11
  %16 = load i64, ptr %5, align 8, !tbaa !11
  %.not13 = icmp sgt i64 %16, %15
  br i1 %.not13, label %._crit_edge, label %.lr.ph

.lr.ph:                                           ; preds = %11
  %17 = load ptr, ptr %3, align 8, !tbaa !675
  %18 = load i32, ptr %17, align 4, !tbaa !4
  %19 = sext i32 %18 to i64
  %20 = getelementptr inbounds nuw i8, ptr %3, i64 8
  %21 = load ptr, ptr %20, align 8, !tbaa !677
  %22 = load i32, ptr %21, align 4, !tbaa !4
  %23 = sext i32 %22 to i64
  %24 = getelementptr inbounds nuw i8, ptr %3, i64 24
  %25 = load ptr, ptr %24, align 8
  %26 = getelementptr inbounds nuw i8, ptr %3, i64 16
  %27 = load ptr, ptr %26, align 8
  br label %28

28:                                               ; preds = %.lr.ph, %"_ZZZZN6open3d4core7TriuCPUERKNS0_6TensorERS1_iENK3$_0clEvENKUlvE2_clEvENKUllE_clEl.exit"
  %.014 = phi i64 [ %16, %.lr.ph ], [ %40, %"_ZZZZN6open3d4core7TriuCPUERKNS0_6TensorERS1_iENK3$_0clEvENKUlvE2_clEvENKUllE_clEl.exit" ]
  %29 = sdiv i64 %.014, %19
  %30 = srem i64 %.014, %19
  %31 = sub nsw i64 %30, %29
  %.not.i = icmp slt i64 %31, %23
  br i1 %.not.i, label %"_ZZZZN6open3d4core7TriuCPUERKNS0_6TensorERS1_iENK3$_0clEvENKUlvE2_clEvENKUllE_clEl.exit", label %32

32:                                               ; preds = %28
  %33 = load ptr, ptr %25, align 8, !tbaa !53
  %34 = mul nsw i64 %29, %19
  %35 = getelementptr i16, ptr %33, i64 %34
  %36 = getelementptr i16, ptr %35, i64 %30
  %37 = load i16, ptr %36, align 2, !tbaa !678
  %38 = load ptr, ptr %27, align 8, !tbaa !53
  %39 = getelementptr inbounds i16, ptr %38, i64 %.014
  store i16 %37, ptr %39, align 2, !tbaa !678
  br label %"_ZZZZN6open3d4core7TriuCPUERKNS0_6TensorERS1_iENK3$_0clEvENKUlvE2_clEvENKUllE_clEl.exit"

"_ZZZZN6open3d4core7TriuCPUERKNS0_6TensorERS1_iENK3$_0clEvENKUlvE2_clEvENKUllE_clEl.exit": ; preds = %28, %32
  %40 = add i64 %.014, 1
  %exitcond.not = icmp eq i64 %.014, %15
  br i1 %exitcond.not, label %._crit_edge, label %28

._crit_edge:                                      ; preds = %"_ZZZZN6open3d4core7TriuCPUERKNS0_6TensorERS1_iENK3$_0clEvENKUlvE2_clEvENKUllE_clEl.exit", %11
  call void @__kmpc_for_static_fini(ptr nonnull @1, i32 %13)
  call void @llvm.lifetime.end.p0(i64 4, ptr nonnull %8) #10
  call void @llvm.lifetime.end.p0(i64 8, ptr nonnull %7) #10
  call void @llvm.lifetime.end.p0(i64 8, ptr nonnull %6) #10
  call void @llvm.lifetime.end.p0(i64 8, ptr nonnull %5) #10
  br label %41

41:                                               ; preds = %._crit_edge, %4
  ret void
}